target datalayout = "e-m:e-p270:32:32-p271:32:32-p272:64:64-i64:64-i128:128-f80:128-n8:16:32:64-S128"
target triple = "x86_64-pc-linux-gnu"

%struct.AVChannelLayout = type { i32, i32, %union.anon, ptr }
%union.anon = type { i64 }
%struct.AVChannelCustom = type { i32, [16 x i8], ptr }

; Function Attrs: alwaysinline nounwind willreturn memory(none) uwtable
define internal i32 @av_popcount_c(i32 noundef %0) #5 {
  %2 = alloca i32, align 4
  store i32 %0, ptr %2, align 4, !tbaa !9
  %3 = load i32, ptr %2, align 4, !tbaa !9
  %4 = lshr i32 %3, 1
  %5 = and i32 %4, 1431655765
  %6 = load i32, ptr %2, align 4, !tbaa !9
  %7 = sub i32 %6, %5
  store i32 %7, ptr %2, align 4, !tbaa !9
  %8 = load i32, ptr %2, align 4, !tbaa !9
  %9 = and i32 %8, 858993459
  %10 = load i32, ptr %2, align 4, !tbaa !9
  %11 = lshr i32 %10, 2
  %12 = and i32 %11, 858993459
  %13 = add i32 %9, %12
  store i32 %13, ptr %2, align 4, !tbaa !9
  %14 = load i32, ptr %2, align 4, !tbaa !9
  %15 = load i32, ptr %2, align 4, !tbaa !9
  %16 = lshr i32 %15, 4
  %17 = add i32 %14, %16
  %18 = and i32 %17, 252645135
  store i32 %18, ptr %2, align 4, !tbaa !9
  %19 = load i32, ptr %2, align 4, !tbaa !9
  %20 = lshr i32 %19, 8
  %21 = load i32, ptr %2, align 4, !tbaa !9
  %22 = add i32 %21, %20
  store i32 %22, ptr %2, align 4, !tbaa !9
  %23 = load i32, ptr %2, align 4, !tbaa !9
  %24 = load i32, ptr %2, align 4, !tbaa !9
  %25 = lshr i32 %24, 16
  %26 = add i32 %23, %25
  %27 = and i32 %26, 63
  ret i32 %27
}

; Function Attrs: alwaysinline nounwind willreturn memory(none) uwtable
define internal i32 @av_popcount64_c(i64 noundef %0) #5 {
  %2 = alloca i64, align 8
  store i64 %0, ptr %2, align 8, !tbaa !15
  %3 = load i64, ptr %2, align 8, !tbaa !15
  %4 = trunc i64 %3 to i32
  %5 = call i32 @av_popcount_c(i32 noundef %4) #13
  %6 = load i64, ptr %2, align 8, !tbaa !15
  %7 = lshr i64 %6, 32
  %8 = trunc i64 %7 to i32
  %9 = call i32 @av_popcount_c(i32 noundef %8) #13
  %10 = add nsw i32 %5, %9
  ret i32 %10
}

; Function Attrs: nounwind uwtable
define i32 @av_channel_layout_channel_from_index(ptr noundef %0, i32 noundef %1) #0 {
  %3 = alloca i32, align 4
  %4 = alloca ptr, align 8
  %5 = alloca i32, align 4
  %6 = alloca i32, align 4
  %7 = alloca i32, align 4
  %8 = alloca i32, align 4
  store ptr %0, ptr %4, align 8, !tbaa !23
  store i32 %1, ptr %5, align 4, !tbaa !9
  call void @llvm.lifetime.start.p0(i64 4, ptr %6) #11
  %9 = load i32, ptr %5, align 4, !tbaa !9
  %10 = load ptr, ptr %4, align 8, !tbaa !23
  %11 = getelementptr inbounds nuw %struct.AVChannelLayout, ptr %10, i32 0, i32 1
  %12 = load i32, ptr %11, align 4, !tbaa !32
  %13 = icmp uge i32 %9, %12
  br i1 %13, label %14, label %15

14:                                               ; preds = %2
  store i32 -1, ptr %3, align 4
  store i32 1, ptr %7, align 4
  br label %75

15:                                               ; preds = %2
  %16 = load ptr, ptr %4, align 8, !tbaa !23
  %17 = getelementptr inbounds nuw %struct.AVChannelLayout, ptr %16, i32 0, i32 0
  %18 = load i32, ptr %17, align 8, !tbaa !30
  switch i32 %18, label %74 [
    i32 2, label %19
    i32 3, label %28
    i32 1, label %50
  ]

19:                                               ; preds = %15
  %20 = load ptr, ptr %4, align 8, !tbaa !23
  %21 = getelementptr inbounds nuw %struct.AVChannelLayout, ptr %20, i32 0, i32 2
  %22 = load ptr, ptr %21, align 8, !tbaa !22
  %23 = load i32, ptr %5, align 4, !tbaa !9
  %24 = zext i32 %23 to i64
  %25 = getelementptr inbounds nuw %struct.AVChannelCustom, ptr %22, i64 %24
  %26 = getelementptr inbounds nuw %struct.AVChannelCustom, ptr %25, i32 0, i32 0
  %27 = load i32, ptr %26, align 8, !tbaa !27
  store i32 %27, ptr %3, align 4
  store i32 1, ptr %7, align 4
  br label %75

28:                                               ; preds = %15
  call void @llvm.lifetime.start.p0(i64 4, ptr %8) #11
  %29 = load ptr, ptr %4, align 8, !tbaa !23
  %30 = getelementptr inbounds nuw %struct.AVChannelLayout, ptr %29, i32 0, i32 1
  %31 = load i32, ptr %30, align 4, !tbaa !32
  %32 = load ptr, ptr %4, align 8, !tbaa !23
  %33 = getelementptr inbounds nuw %struct.AVChannelLayout, ptr %32, i32 0, i32 2
  %34 = load i64, ptr %33, align 8, !tbaa !22
  %35 = call i32 @av_popcount64_c(i64 noundef %34) #13
  %36 = sub nsw i32 %31, %35
  store i32 %36, ptr %8, align 4, !tbaa !9
  %37 = load i32, ptr %5, align 4, !tbaa !9
  %38 = load i32, ptr %8, align 4, !tbaa !9
  %39 = icmp ult i32 %37, %38
  br i1 %39, label %40, label %43

40:                                               ; preds = %28
  %41 = load i32, ptr %5, align 4, !tbaa !9
  %42 = add i32 1024, %41
  store i32 %42, ptr %3, align 4
  store i32 1, ptr %7, align 4
  br label %47

43:                                               ; preds = %28
  %44 = load i32, ptr %8, align 4, !tbaa !9
  %45 = load i32, ptr %5, align 4, !tbaa !9
  %46 = sub i32 %45, %44
  store i32 %46, ptr %5, align 4, !tbaa !9
  store i32 0, ptr %7, align 4
  br label %47

47:                                               ; preds = %43, %40
  call void @llvm.lifetime.end.p0(i64 4, ptr %8) #11
  %48 = load i32, ptr %7, align 4
  switch i32 %48, label %75 [
    i32 0, label %49
  ]

49:                                               ; preds = %47
  br label %50

50:                                               ; preds = %15, %49
  store i32 0, ptr %6, align 4, !tbaa !9
  br label %51

51:                                               ; preds = %70, %50
  %52 = load i32, ptr %6, align 4, !tbaa !9
  %53 = icmp slt i32 %52, 64
  br i1 %53, label %54, label %73

54:                                               ; preds = %51
  %55 = load i32, ptr %6, align 4, !tbaa !9
  %56 = zext i32 %55 to i64
  %57 = shl i64 1, %56
  %58 = load ptr, ptr %4, align 8, !tbaa !23
  %59 = getelementptr inbounds nuw %struct.AVChannelLayout, ptr %58, i32 0, i32 2
  %60 = load i64, ptr %59, align 8, !tbaa !22
  %61 = and i64 %57, %60
  %62 = icmp ne i64 %61, 0
  br i1 %62, label %63, label %69

63:                                               ; preds = %54
  %64 = load i32, ptr %5, align 4, !tbaa !9
  %65 = add i32 %64, -1
  store i32 %65, ptr %5, align 4, !tbaa !9
  %66 = icmp ne i32 %64, 0
  br i1 %66, label %69, label %67

67:                                               ; preds = %63
  %68 = load i32, ptr %6, align 4, !tbaa !9
  store i32 %68, ptr %3, align 4
  store i32 1, ptr %7, align 4
  br label %75

69:                                               ; preds = %63, %54
  br label %70

70:                                               ; preds = %69
  %71 = load i32, ptr %6, align 4, !tbaa !9
  %72 = add nsw i32 %71, 1
  store i32 %72, ptr %6, align 4, !tbaa !9
  br label %51, !llvm.loop !40

73:                                               ; preds = %51
  br label %74

74:                                               ; preds = %15, %73
  store i32 -1, ptr %3, align 4
  store i32 1, ptr %7, align 4
  br label %75

75:                                               ; preds = %74, %67, %47, %19, %14
  call void @llvm.lifetime.end.p0(i64 4, ptr %6) #11
  %76 = load i32, ptr %3, align 4
  ret i32 %76
}