; Function Attrs: nofree norecurse nosync nounwind memory(read, inaccessiblemem: none) uwtable
define i32 @av_channel_layout_channel_from_index(ptr noundef readonly captures(none) %0, i32 noundef %1) local_unnamed_addr #9 {
  %3 = getelementptr inbounds nuw i8, ptr %0, i64 4
  %4 = load i32, ptr %3, align 4, !tbaa !20
  %.not = icmp ult i32 %1, %4
  br i1 %.not, label %5, label %.loopexit

5:                                                ; preds = %2
  %6 = load i32, ptr %0, align 8, !tbaa !18
  switch i32 %6, label %.loopexit [
    i32 2, label %7
    i32 3, label %13
    i32 1, label %._crit_edge
  ]

._crit_edge:                                      ; preds = %5
  %.phi.trans.insert = getelementptr inbounds nuw i8, ptr %0, i64 8
  %.pre = load i64, ptr %.phi.trans.insert, align 8, !tbaa !17
  br label %53

7:                                                ; preds = %5
  %8 = getelementptr inbounds nuw i8, ptr %0, i64 8
  %9 = load ptr, ptr %8, align 8, !tbaa !17
  %10 = zext i32 %1 to i64
  %11 = getelementptr inbounds nuw %struct.AVChannelCustom, ptr %9, i64 %10
  %12 = load i32, ptr %11, align 8, !tbaa !21
  br label %.loopexit

13:                                               ; preds = %5
  %14 = getelementptr inbounds nuw i8, ptr %0, i64 8
  %15 = load i64, ptr %14, align 8, !tbaa !17
  %16 = trunc i64 %15 to i32
  %17 = lshr i32 %16, 1
  %18 = and i32 %17, 1431655765
  %19 = sub i32 %16, %18
  %20 = and i32 %19, 858993459
  %21 = lshr i32 %19, 2
  %22 = and i32 %21, 858993459
  %23 = add nuw nsw i32 %22, %20
  %24 = lshr i32 %23, 4
  %25 = add nuw nsw i32 %24, %23
  %26 = and i32 %25, 252645135
  %27 = lshr i32 %26, 8
  %28 = add nuw nsw i32 %27, %26
  %29 = lshr i32 %28, 16
  %30 = add nuw nsw i32 %29, %28
  %31 = and i32 %30, 63
  %32 = lshr i64 %15, 32
  %33 = trunc nuw i64 %32 to i32
  %34 = lshr i32 %33, 1
  %35 = and i32 %34, 1431655765
  %36 = sub i32 %33, %35
  %37 = and i32 %36, 858993459
  %38 = lshr i32 %36, 2
  %39 = and i32 %38, 858993459
  %40 = add nuw nsw i32 %39, %37
  %41 = lshr i32 %40, 4
  %42 = add nuw nsw i32 %41, %40
  %43 = and i32 %42, 252645135
  %44 = lshr i32 %43, 8
  %45 = add nuw nsw i32 %44, %43
  %46 = lshr i32 %45, 16
  %47 = add nuw nsw i32 %46, %45
  %48 = and i32 %47, 63
  %49 = add nuw nsw i32 %31, %48
  %50 = sub i32 %4, %49
  %.not26 = icmp ult i32 %1, %50
  %51 = add i32 %1, 1024
  %52 = sub nuw i32 %1, %50
  br i1 %.not26, label %.loopexit, label %53

53:                                               ; preds = %._crit_edge, %13
  %54 = phi i64 [ %.pre, %._crit_edge ], [ %15, %13 ]
  %.021 = phi i32 [ %1, %._crit_edge ], [ %52, %13 ]
  br label %55

55:                                               ; preds = %53, %60
  %indvars.iv = phi i64 [ 0, %53 ], [ %indvars.iv.next, %60 ]
  %.231 = phi i32 [ %.021, %53 ], [ %.3, %60 ]
  %56 = shl nuw i64 1, %indvars.iv
  %57 = and i64 %54, %56
  %.not27 = icmp eq i64 %57, 0
  br i1 %.not27, label %60, label %58

58:                                               ; preds = %55
  %59 = add i32 %.231, -1
  %.not28 = icmp eq i32 %.231, 0
  br i1 %.not28, label %.loopexit.loopexit.split.loop.exit, label %60

60:                                               ; preds = %55, %58
  %.3 = phi i32 [ %59, %58 ], [ %.231, %55 ]
  %indvars.iv.next = add nuw nsw i64 %indvars.iv, 1
  %exitcond.not = icmp eq i64 %indvars.iv.next, 64
  br i1 %exitcond.not, label %.loopexit, label %55, !llvm.loop !37

.loopexit.loopexit.split.loop.exit:               ; preds = %58
  %61 = trunc nuw nsw i64 %indvars.iv to i32
  br label %.loopexit

.loopexit:                                        ; preds = %60, %.loopexit.loopexit.split.loop.exit, %5, %2, %13, %7
  %.0 = phi i32 [ %51, %13 ], [ %12, %7 ], [ -1, %2 ], [ -1, %5 ], [ %61, %.loopexit.loopexit.split.loop.exit ], [ -1, %60 ]
  ret i32 %.0
}